target datalayout = "e-m:e-p270:32:32-p271:32:32-p272:64:64-i64:64-i128:128-f80:128-n8:16:32:64-S128"
target triple = "x86_64-pc-linux-gnu"

@unicode_prop_Cased1_index = internal constant [21 x i8] c"\B9\02\E0\C0\1D \E5, \B1\07!\C1\D6!J\F1\01\8A\F1\01", align 16

; Function Attrs: nounwind uwtable
define dso_local i32 @lre_is_cased(i32 noundef %0) #0 {
  %2 = alloca i32, align 4
  %3 = alloca i32, align 4
  %4 = alloca i32, align 4
  %5 = alloca i32, align 4
  %6 = alloca i32, align 4
  %7 = alloca i32, align 4
  %8 = alloca i32, align 4
  %9 = alloca i32, align 4
  store i32 %0, ptr %3, align 4
  store i32 0, ptr %8, align 4
  store i32 369, ptr %9, align 4
  br label %10

10:                                               ; preds = %45, %1
  %11 = load i32, ptr %8, align 4
  %12 = load i32, ptr %9, align 4
  %13 = icmp sle i32 %11, %12
  br i1 %13, label %14, label %46

14:                                               ; preds = %10
  %15 = load i32, ptr %9, align 4
  %16 = load i32, ptr %8, align 4
  %17 = add i32 %15, %16
  %18 = udiv i32 %17, 2
  store i32 %18, ptr %7, align 4
  %19 = load i32, ptr %7, align 4
  %20 = sext i32 %19 to i64
  %21 = getelementptr [370 x i32], ptr @case_conv_table1, i64 0, i64 %20
  %22 = load i32, ptr %21, align 4
  store i32 %22, ptr %4, align 4
  %23 = load i32, ptr %4, align 4
  %24 = lshr i32 %23, 15
  store i32 %24, ptr %5, align 4
  %25 = load i32, ptr %4, align 4
  %26 = lshr i32 %25, 8
  %27 = and i32 %26, 127
  store i32 %27, ptr %6, align 4
  %28 = load i32, ptr %3, align 4
  %29 = load i32, ptr %5, align 4
  %30 = icmp ult i32 %28, %29
  br i1 %30, label %31, label %34

31:                                               ; preds = %14
  %32 = load i32, ptr %7, align 4
  %33 = sub i32 %32, 1
  store i32 %33, ptr %9, align 4
  br label %45

34:                                               ; preds = %14
  %35 = load i32, ptr %3, align 4
  %36 = load i32, ptr %5, align 4
  %37 = load i32, ptr %6, align 4
  %38 = add i32 %36, %37
  %39 = icmp uge i32 %35, %38
  br i1 %39, label %40, label %43

40:                                               ; preds = %34
  %41 = load i32, ptr %7, align 4
  %42 = add i32 %41, 1
  store i32 %42, ptr %8, align 4
  br label %44

43:                                               ; preds = %34
  store i32 1, ptr %2, align 4
  br label %49

44:                                               ; preds = %40
  br label %45

45:                                               ; preds = %44, %31
  br label %10, !llvm.loop !10

46:                                               ; preds = %10
  %47 = load i32, ptr %3, align 4
  %48 = call i32 @lre_is_in_table(i32 noundef %47, ptr noundef @unicode_prop_Cased1_table, ptr noundef @unicode_prop_Cased1_index, i32 noundef 7)
  store i32 %48, ptr %2, align 4
  br label %49

49:                                               ; preds = %46, %43
  %50 = load i32, ptr %2, align 4
  ret i32 %50
}