; Function Attrs: nofree norecurse nosync nounwind memory(read, inaccessiblemem: none) uwtable
define dso_local i32 @lre_is_cased(i32 noundef %0) local_unnamed_addr #2 {
  br label %2

2:                                                ; preds = %1, %18
  %.023 = phi i32 [ 369, %1 ], [ %.1, %18 ]
  %.01622 = phi i32 [ 0, %1 ], [ %.117, %18 ]
  %3 = add i32 %.023, %.01622
  %4 = lshr i32 %3, 1
  %5 = zext nneg i32 %4 to i64
  %6 = getelementptr [370 x i32], ptr @case_conv_table1, i64 0, i64 %5
  %7 = load i32, ptr %6, align 4
  %8 = lshr i32 %7, 15
  %9 = icmp ugt i32 %8, %0
  br i1 %9, label %10, label %12

10:                                               ; preds = %2
  %11 = add nsw i32 %4, -1
  br label %18

12:                                               ; preds = %2
  %13 = lshr i32 %7, 8
  %14 = and i32 %13, 127
  %15 = add nuw nsw i32 %14, %8
  %.not21 = icmp ugt i32 %15, %0
  br i1 %.not21, label %.loopexit, label %16

16:                                               ; preds = %12
  %17 = add nuw i32 %4, 1
  br label %18

18:                                               ; preds = %16, %10
  %.117 = phi i32 [ %.01622, %10 ], [ %17, %16 ]
  %.1 = phi i32 [ %11, %10 ], [ %.023, %16 ]
  %.not = icmp sgt i32 %.117, %.1
  br i1 %.not, label %19, label %2, !llvm.loop !11

19:                                               ; preds = %18
  %20 = tail call fastcc i32 @lre_is_in_table(i32 noundef %0, ptr noundef nonnull @unicode_prop_Cased1_table, ptr noundef nonnull @unicode_prop_Cased1_index, i32 noundef 7), !range !12
  br label %.loopexit

.loopexit:                                        ; preds = %12, %19
  %.018 = phi i32 [ %20, %19 ], [ 1, %12 ]
  ret i32 %.018
}